; Function Attrs: mustprogress uwtable
define hidden void @_ZN4cvc58internal6theory11quantifiers18EmbeddingConverterC2ERNS0_3EnvEPNS2_11TermDbSygusEPNS2_15SynthConjectureE(ptr noundef nonnull align 8 dereferenceable(81) %this, ptr noundef nonnull align 8 dereferenceable(576) %env, ptr noundef %tds, ptr noundef %p) unnamed_addr #3 align 2 personality ptr @__gxx_personality_v0 {
entry:
  tail call void @_ZN4cvc58internal6EnvObjC2ERNS0_3EnvE(ptr noundef nonnull align 8 dereferenceable(16) %this, ptr noundef nonnull align 8 dereferenceable(576) %env)
  store ptr getelementptr inbounds ({ [4 x ptr] }, ptr @_ZTVN4cvc58internal6theory11quantifiers18EmbeddingConverterE, i64 0, i32 0, i64 2), ptr %this, align 8
  %d_tds = getelementptr inbounds i8, ptr %this, i64 16
  store ptr %tds, ptr %d_tds, align 8
  %d_parent = getelementptr inbounds i8, ptr %this, i64 24
  store ptr %p, ptr %d_parent, align 8
  %0 = getelementptr inbounds i8, ptr %this, i64 40
  store i32 0, ptr %0, align 8
  %_M_parent.i.i.i.i.i = getelementptr inbounds i8, ptr %this, i64 48
  store ptr null, ptr %_M_parent.i.i.i.i.i, align 8
  %_M_left.i.i.i.i.i = getelementptr inbounds i8, ptr %this, i64 56
  store ptr %0, ptr %_M_left.i.i.i.i.i, align 8
  %_M_right.i.i.i.i.i = getelementptr inbounds i8, ptr %this, i64 64
  store ptr %0, ptr %_M_right.i.i.i.i.i, align 8
  %_M_node_count.i.i.i.i.i = getelementptr inbounds i8, ptr %this, i64 72
  store i64 0, ptr %_M_node_count.i.i.i.i.i, align 8
  %d_is_syntax_restricted = getelementptr inbounds i8, ptr %this, i64 80
  store i8 0, ptr %d_is_syntax_restricted, align 8
  ret void
}